; Function Attrs: mustprogress uwtable
define hidden void @_ZN11solver_pool12reset_solverEP6solver(ptr noundef nonnull readnone align 8 captures(none) dereferenceable(136) %0, ptr noundef %1) local_unnamed_addr #5 align 2 {
  %3 = icmp eq ptr %1, null
  br i1 %3, label %.thread, label %4

4:                                                ; preds = %2
  %5 = tail call ptr @__dynamic_cast(ptr nonnull %1, ptr nonnull @_ZTI6solver, ptr nonnull @_ZTI11pool_solver, i64 0) #25
  %.not = icmp eq ptr %5, null
  br i1 %.not, label %.thread, label %6

6:                                                ; preds = %4
  %7 = getelementptr inbounds nuw i8, ptr %5, i64 184
  store i32 0, ptr %7, align 8, !tbaa !149
  %8 = getelementptr inbounds nuw i8, ptr %5, i64 168
  %9 = getelementptr inbounds nuw i8, ptr %5, i64 176
  %10 = load ptr, ptr %9, align 8, !tbaa !148
  %11 = icmp eq ptr %10, null
  br i1 %11, label %_ZN11pool_solver5resetEv.exit, label %_ZNK6vectorIP4exprLb0EjE4sizeEv.exit.i.i

_ZNK6vectorIP4exprLb0EjE4sizeEv.exit.i.i:         ; preds = %6
  %12 = getelementptr inbounds i8, ptr %10, i64 -4
  %13 = load i32, ptr %12, align 4, !tbaa !41
  %14 = zext i32 %13 to i64
  %15 = getelementptr inbounds nuw ptr, ptr %10, i64 %14
  %.not.i.i = icmp eq i32 %13, 0
  br i1 %.not.i.i, label %_ZN15ref_vector_coreI4expr19ref_manager_wrapperIS0_11ast_managerEE13dec_range_refEPKPS0_S7_.exit.thread4.i.i, label %.lr.ph.i.i.i

.lr.ph.i.i.i:                                     ; preds = %_ZNK6vectorIP4exprLb0EjE4sizeEv.exit.i.i, %_ZN15ref_vector_coreI4expr19ref_manager_wrapperIS0_11ast_managerEE7dec_refEPS0_.exit.i.i.i
  %.06.i.i.i = phi ptr [ %24, %_ZN15ref_vector_coreI4expr19ref_manager_wrapperIS0_11ast_managerEE7dec_refEPS0_.exit.i.i.i ], [ %10, %_ZNK6vectorIP4exprLb0EjE4sizeEv.exit.i.i ]
  %16 = load ptr, ptr %.06.i.i.i, align 8, !tbaa !159
  %17 = load ptr, ptr %8, align 8, !tbaa !161
  %.not.i.i.i.i.i.i = icmp eq ptr %16, null
  br i1 %.not.i.i.i.i.i.i, label %_ZN15ref_vector_coreI4expr19ref_manager_wrapperIS0_11ast_managerEE7dec_refEPS0_.exit.i.i.i, label %18

18:                                               ; preds = %.lr.ph.i.i.i
  %19 = getelementptr inbounds nuw i8, ptr %16, i64 8
  %20 = load i32, ptr %19, align 4, !tbaa !140
  %21 = add i32 %20, -1
  store i32 %21, ptr %19, align 4, !tbaa !140
  %22 = icmp eq i32 %21, 0
  br i1 %22, label %23, label %_ZN15ref_vector_coreI4expr19ref_manager_wrapperIS0_11ast_managerEE7dec_refEPS0_.exit.i.i.i

23:                                               ; preds = %18
  tail call void @_ZN11ast_manager11delete_nodeEP3ast(ptr noundef nonnull align 8 dereferenceable(976) %17, ptr noundef nonnull %16)
  br label %_ZN15ref_vector_coreI4expr19ref_manager_wrapperIS0_11ast_managerEE7dec_refEPS0_.exit.i.i.i

_ZN15ref_vector_coreI4expr19ref_manager_wrapperIS0_11ast_managerEE7dec_refEPS0_.exit.i.i.i: ; preds = %23, %18, %.lr.ph.i.i.i
  %24 = getelementptr inbounds nuw i8, ptr %.06.i.i.i, i64 8
  %25 = icmp ult ptr %24, %15
  br i1 %25, label %.lr.ph.i.i.i, label %_ZN15ref_vector_coreI4expr19ref_manager_wrapperIS0_11ast_managerEE13dec_range_refEPKPS0_S7_.exit.i.i, !llvm.loop !162

_ZN15ref_vector_coreI4expr19ref_manager_wrapperIS0_11ast_managerEE13dec_range_refEPKPS0_S7_.exit.i.i: ; preds = %_ZN15ref_vector_coreI4expr19ref_manager_wrapperIS0_11ast_managerEE7dec_refEPS0_.exit.i.i.i
  %.pre.i.i = load ptr, ptr %9, align 8, !tbaa !148
  %.not.i.i.i = icmp eq ptr %.pre.i.i, null
  br i1 %.not.i.i.i, label %_ZN11pool_solver5resetEv.exit, label %_ZN15ref_vector_coreI4expr19ref_manager_wrapperIS0_11ast_managerEE13dec_range_refEPKPS0_S7_.exit.thread4.i.i

_ZN15ref_vector_coreI4expr19ref_manager_wrapperIS0_11ast_managerEE13dec_range_refEPKPS0_S7_.exit.thread4.i.i: ; preds = %_ZN15ref_vector_coreI4expr19ref_manager_wrapperIS0_11ast_managerEE13dec_range_refEPKPS0_S7_.exit.i.i, %_ZNK6vectorIP4exprLb0EjE4sizeEv.exit.i.i
  %26 = phi ptr [ %.pre.i.i, %_ZN15ref_vector_coreI4expr19ref_manager_wrapperIS0_11ast_managerEE13dec_range_refEPKPS0_S7_.exit.i.i ], [ %10, %_ZNK6vectorIP4exprLb0EjE4sizeEv.exit.i.i ]
  %27 = getelementptr inbounds i8, ptr %26, i64 -4
  store i32 0, ptr %27, align 4, !tbaa !41
  br label %_ZN11pool_solver5resetEv.exit

_ZN11pool_solver5resetEv.exit:                    ; preds = %6, %_ZN15ref_vector_coreI4expr19ref_manager_wrapperIS0_11ast_managerEE13dec_range_refEPKPS0_S7_.exit.i.i, %_ZN15ref_vector_coreI4expr19ref_manager_wrapperIS0_11ast_managerEE13dec_range_refEPKPS0_S7_.exit.thread4.i.i
  %28 = getelementptr inbounds nuw i8, ptr %5, i64 120
  %29 = load ptr, ptr %28, align 8, !tbaa !163
  %30 = getelementptr inbounds nuw i8, ptr %5, i64 160
  %31 = load ptr, ptr %30, align 8, !tbaa !3
  tail call void @_ZN11solver_pool7refreshEP6solver(ptr noundef nonnull align 8 dereferenceable(136) %29, ptr noundef %31)
  br label %.thread

.thread:                                          ; preds = %2, %_ZN11pool_solver5resetEv.exit, %4
  ret void
}